; Function Attrs: mustprogress nounwind uwtable
define dso_local noundef i32 @_Z14TestTraceScopei(i32 noundef %0) local_unnamed_addr #4 personality ptr @__gxx_personality_v0 {
  %2 = alloca %"class.pxrInternal_v0_24__pxrReserved__::TraceKey", align 8
  %3 = icmp sgt i32 %0, 0
  br i1 %3, label %.lr.ph, label %._crit_edge

.lr.ph:                                           ; preds = %1, %_ZN32pxrInternal_v0_24__pxrReserved__14TraceScopeAutoD2Ev.exit
  %.013 = phi i32 [ %12, %_ZN32pxrInternal_v0_24__pxrReserved__14TraceScopeAutoD2Ev.exit ], [ 0, %1 ]
  %.0612 = phi i32 [ %11, %_ZN32pxrInternal_v0_24__pxrReserved__14TraceScopeAutoD2Ev.exit ], [ 0, %1 ]
  %4 = load atomic i32, ptr @_ZN32pxrInternal_v0_24__pxrReserved__14TraceCollector10_isEnabledE acquire, align 4
  %5 = icmp eq i32 %4, 1
  br i1 %5, label %6, label %_ZN32pxrInternal_v0_24__pxrReserved__14TraceScopeAutoC2ERKNS_18TraceStaticKeyDataE.exit

_ZN32pxrInternal_v0_24__pxrReserved__14TraceScopeAutoC2ERKNS_18TraceStaticKeyDataE.exit: ; preds = %.lr.ph
  call void @llvm.lifetime.start.p0(i64 8, ptr nonnull %2)
  br label %_ZN32pxrInternal_v0_24__pxrReserved__14TraceScopeAutoD2Ev.exit

6:                                                ; preds = %.lr.ph
  fence syncscope("singlethread") seq_cst
  %7 = call { i32, i32 } asm sideeffect "lfence\0A\09rdtsc\0A\09lfence", "={ax},={dx},~{dirflag},~{fpsr},~{flags}"() #17, !srcloc !5
  %8 = extractvalue { i32, i32 } %7, 0
  %9 = extractvalue { i32, i32 } %7, 1
  call void @llvm.lifetime.start.p0(i64 8, ptr nonnull %2)
  fence syncscope("singlethread") seq_cst
  %10 = call noundef i64 asm sideeffect "rdtscp\0A\09shl $$32, %rdx\0A\09or %rdx, $0\0A\09lfence", "={ax},~{rcx},~{rdx},~{cc},~{dirflag},~{fpsr},~{flags}"() #17, !srcloc !6
  store ptr @_ZZ14TestTraceScopeiE15TraceKeyData_58, ptr %2, align 8
  %.sroa.8.12.insert.ext = zext i32 %9 to i64
  %.sroa.8.12.insert.shift = shl nuw i64 %.sroa.8.12.insert.ext, 32
  %.sroa.5.12.insert.ext = zext i32 %8 to i64
  %.sroa.5.12.insert.insert = or disjoint i64 %.sroa.8.12.insert.shift, %.sroa.5.12.insert.ext
  call void @_ZN32pxrInternal_v0_24__pxrReserved__14TraceCollector5ScopeERKNS_8TraceKeyEmm(ptr noundef nonnull align 8 dereferenceable(8) %2, i64 noundef %.sroa.5.12.insert.insert, i64 noundef %10) #17
  br label %_ZN32pxrInternal_v0_24__pxrReserved__14TraceScopeAutoD2Ev.exit

_ZN32pxrInternal_v0_24__pxrReserved__14TraceScopeAutoD2Ev.exit: ; preds = %_ZN32pxrInternal_v0_24__pxrReserved__14TraceScopeAutoC2ERKNS_18TraceStaticKeyDataE.exit, %6
  %11 = add nuw nsw i32 %.013, %.0612
  call void @llvm.lifetime.end.p0(i64 8, ptr nonnull %2)
  %12 = add nuw nsw i32 %.013, 1
  %exitcond.not = icmp eq i32 %12, %0
  br i1 %exitcond.not, label %._crit_edge, label %.lr.ph, !llvm.loop !7

._crit_edge:                                      ; preds = %_ZN32pxrInternal_v0_24__pxrReserved__14TraceScopeAutoD2Ev.exit, %1
  %.06.lcssa = phi i32 [ 0, %1 ], [ %11, %_ZN32pxrInternal_v0_24__pxrReserved__14TraceScopeAutoD2Ev.exit ]
  ret i32 %.06.lcssa
}